Certificate:
    Data:
        Version: 3 (0x2)
        Serial Number:
            10:00:00:00:00:00:00:00:00:00:00:00:00:00:00:00
        Signature Algorithm: ecdsa-with-SHA256
        Issuer: C=XX, O=WindTalker Matrix, OU=WindTalker Trust System, CN=WTM Root R1
        Validity
            Not Before: Dec  3 15:17:03 2023 GMT
            Not After : Nov 30 15:17:03 2033 GMT
        Subject: C=XX, O=WindTalker Matrix, OU=WindTalker Trust System, CN=WTM Root R1
        Subject Public Key Info:
            Public Key Algorithm: id-ecPublicKey
                Public-Key: (384 bit)
                pub:
                    04:3a:01:b5:6a:77:a1:a7:86:0a:a7:3c:41:5f:9c:
                    46:1d:54:4e:a0:8c:9a:71:79:7f:a7:70:3f:27:bc:
                    b6:c3:d5:68:56:06:7c:55:89:96:a7:bb:80:a2:c8:
                    4e:60:f9:b6:bf:82:3f:e6:b4:17:25:57:94:09:e0:
                    bd:c7:3f:41:e3:20:61:1f:18:4c:78:c0:09:2d:e8:
                    b7:62:95:dd:c5:ac:d6:1e:e2:b2:ee:fc:94:b7:28:
                    dd:b0:0d:25:f5:47:ee
                ASN1 OID: secp384r1
                NIST CURVE: P-384
        X509v3 extensions:
            X509v3 Basic Constraints: critical
                CA:TRUE
            X509v3 Key Usage: critical
                Digital Signature, Certificate Sign, CRL Sign
            X509v3 Subject Key Identifier: 
                20:71:16:F2:BD:71:AD:07:83:93:1D:E5:B2:C8:63:21:36:E8:82:61
            X509v3 Authority Key Identifier: 
                20:71:16:F2:BD:71:AD:07:83:93:1D:E5:B2:C8:63:21:36:E8:82:61
    Signature Algorithm: ecdsa-with-SHA256
    Signature Value:
        30:66:02:31:00:d5:a4:02:64:14:b3:34:a2:6a:1b:02:26:66:
        d2:9a:96:60:5b:5c:47:20:ae:69:9f:d4:17:c6:be:75:f2:c1:
        df:a9:cd:d0:19:24:fa:22:02:c6:2d:53:89:1e:62:5f:dd:02:
        31:00:8e:1a:cc:e5:34:75:31:ac:ad:99:db:67:0e:67:85:70:
        92:2b:b0:b6:c0:b6:87:2e:f6:e0:34:01:f7:6f:fa:bd:30:51:
        5d:b4:a5:69:0d:da:11:50:50:7c:45:fc:cd:03
-----BEGIN CERTIFICATE-----
MIICYTCCAeagAwIBAgIQEAAAAAAAAAAAAAAAAAAAADAKBggqhkjOPQQDAjBhMQsw
CQYDVQQGEwJYWDEaMBgGA1UECgwRV2luZFRhbGtlciBNYXRyaXgxIDAeBgNVBAsM
F1dpbmRUYWxrZXIgVHJ1c3QgU3lzdGVtMRQwEgYDVQQDDAtXVE0gUm9vdCBSMTAe
Fw0yMzEyMDMxNTE3MDNaFw0zMzExMzAxNTE3MDNaMGExCzAJBgNVBAYTAlhYMRow
GAYDVQQKDBFXaW5kVGFsa2VyIE1hdHJpeDEgMB4GA1UECwwXV2luZFRhbGtlciBU
cnVzdCBTeXN0ZW0xFDASBgNVBAMMC1dUTSBSb290IFIxMHYwEAYHKoZIzj0CAQYF
K4EEACIDYgAEOgG1anehp4YKpzxBX5xGHVROoIyacXl/p3A/J7y2w9VoVgZ8VYmW
p7uAoshOYPm2v4I/5rQXJVeUCeC9xz9B4yBhHxhMeMAJLei3YpXdxazWHuKy7vyU
tyjdsA0l9Ufuo2MwYTAPBgNVHRMBAf8EBTADAQH/MA4GA1UdDwEB/wQEAwIBhjAd
BgNVHQ4EFgQUIHEW8r1xrQeDkx3lsshjITbogmEwHwYDVR0jBBgwFoAUIHEW8r1x
rQeDkx3lsshjITbogmEwCgYIKoZIzj0EAwIDaQAwZgIxANWkAmQUszSiahsCJmbS
mpZgW1xHIK5pn9QXxr518sHfqc3QGST6IgLGLVOJHmJf3QIxAI4azOU0dTGsrZnb
Zw5nhXCSK7C2wLaHLvbgNAH3b/q9MFFdtKVpDdoRUFB8RfzNAw==
-----END CERTIFICATE-----
