Certificate:
    Data:
        Version: 3 (0x2)
        Serial Number:
            01:07:15:e6:e4:c0:8e:c4:9d:c8:be:93:64:4a:f1:ee
        Signature Algorithm: ecdsa-with-SHA256
        Issuer: C=ZZ, O=WindTalker Matrix, OU=WindTalker Security Center, CN=WindTalker Root R1
        Validity
            Not Before: Jan  9 12:20:46 2024 GMT
            Not After : Jan  6 12:20:46 2034 GMT
        Subject: C=ZZ, O=WindTalker Matrix, OU=WindTalker Security Center, CN=Insyde Matrix X1
        Subject Public Key Info:
            Public Key Algorithm: id-ecPublicKey
                Public-Key: (384 bit)
                pub:
                    04:bc:1e:d8:8e:8a:b5:91:9e:ab:ca:27:a0:8a:de:
                    f9:d5:1f:9d:51:8c:db:13:1c:62:7e:a0:d4:57:29:
                    e5:df:34:2d:13:87:81:ec:cd:d6:68:e8:ba:24:62:
                    4f:d5:55:9b:45:3c:3d:ca:89:72:db:44:52:62:77:
                    82:9d:68:03:58:35:94:da:fc:5e:88:a8:b4:3b:e0:
                    fa:50:df:9e:6c:22:dc:97:34:8a:4c:91:8a:0c:17:
                    7b:78:d9:7c:e7:54:3f
                ASN1 OID: secp384r1
                NIST CURVE: P-384
        X509v3 extensions:
            Authority Information Access: 
                CA Issuers - URI:http://pki.wtm.moe/r1.crt
                OCSP - URI:http://ocsp.pki.wtm.moe/r1
            X509v3 Authority Key Identifier: 
                3B:FB:30:96:05:48:33:58:91:E7:D9:19:35:C4:C2:92:E1:E8:17:45
            X509v3 Basic Constraints: critical
                CA:TRUE, pathlen:0
            X509v3 CRL Distribution Points: 
                Full Name:
                  URI:http://pki.wtm.moe/r1.crl
            X509v3 Extended Key Usage: 
                TLS Web Client Authentication, TLS Web Server Authentication
            X509v3 Key Usage: critical
                Digital Signature, Certificate Sign, CRL Sign
            X509v3 Name Constraints: 
                Permitted:
                  DNS:insyder
                  DNS:lab
                  IP:198.18.0.0/255.254.0.0
                  IP:FC00:0:0:0:0:0:0:0/FF00:0:0:0:0:0:0:0
            X509v3 Subject Key Identifier: 
                A2:EB:34:F2:15:46:68:1D:56:CB:06:59:19:F0:9C:5F:ED:EB:0A:A2
    Signature Algorithm: ecdsa-with-SHA256
    Signature Value:
        30:65:02:31:00:8d:df:12:dd:5e:7c:d1:78:14:e7:cf:85:9b:
        4b:14:b4:3d:26:a6:ef:98:39:71:13:ba:d7:51:6c:7d:3a:5c:
        7b:df:27:94:4c:87:8b:df:f2:fd:65:d3:d3:9a:b4:15:4e:02:
        30:75:db:b8:28:0f:17:d9:42:87:22:f2:42:6d:fa:fa:5a:ee:
        86:4e:c6:72:5f:74:5a:0f:79:c9:db:f5:b6:6e:a4:23:96:a7:
        86:7f:fa:ee:1c:88:c0:79:14:22:08:72:af
-----BEGIN CERTIFICATE-----
MIIDcjCCAvigAwIBAgIQAQcV5uTAjsSdyL6TZErx7jAKBggqhkjOPQQDAjBrMQsw
CQYDVQQGEwJaWjEaMBgGA1UECgwRV2luZFRhbGtlciBNYXRyaXgxIzAhBgNVBAsM
GldpbmRUYWxrZXIgU2VjdXJpdHkgQ2VudGVyMRswGQYDVQQDDBJXaW5kVGFsa2Vy
IFJvb3QgUjEwHhcNMjQwMTA5MTIyMDQ2WhcNMzQwMTA2MTIyMDQ2WjBpMQswCQYD
VQQGEwJaWjEaMBgGA1UECgwRV2luZFRhbGtlciBNYXRyaXgxIzAhBgNVBAsMGldp
bmRUYWxrZXIgU2VjdXJpdHkgQ2VudGVyMRkwFwYDVQQDDBBJbnN5ZGUgTWF0cml4
IFgxMHYwEAYHKoZIzj0CAQYFK4EEACIDYgAEvB7Yjoq1kZ6ryiegit751R+dUYzb
ExxifqDUVynl3zQtE4eB7M3WaOi6JGJP1VWbRTw9yoly20RSYneCnWgDWDWU2vxe
iKi0O+D6UN+ebCLclzSKTJGKDBd7eNl851Q/o4IBYTCCAV0wXQYIKwYBBQUHAQEE
UTBPMCUGCCsGAQUFBzAChhlodHRwOi8vcGtpLnd0bS5tb2UvcjEuY3J0MCYGCCsG
AQUFBzABhhpodHRwOi8vb2NzcC5wa2kud3RtLm1vZS9yMTAfBgNVHSMEGDAWgBQ7
+zCWBUgzWJHn2Rk1xMKS4egXRTASBgNVHRMBAf8ECDAGAQH/AgEAMCoGA1UdHwQj
MCEwH6AdoBuGGWh0dHA6Ly9wa2kud3RtLm1vZS9yMS5jcmwwHQYDVR0lBBYwFAYI
KwYBBQUHAwIGCCsGAQUFBwMBMA4GA1UdDwEB/wQEAwIBhjBNBgNVHR4ERjBEoEIw
CYIHaW5zeWRlcjAFggNsYWIwCocIxhIAAP/+AAAwIocg/AAAAAAAAAAAAAAAAAAA
AP8AAAAAAAAAAAAAAAAAAAAwHQYDVR0OBBYEFKLrNPIVRmgdVssGWRnwnF/t6wqi
MAoGCCqGSM49BAMCA2gAMGUCMQCN3xLdXnzReBTnz4WbSxS0PSam75g5cRO611Fs
fTpce98nlEyHi9/y/WXT05q0FU4CMHXbuCgPF9lChyLyQm36+lruhk7Gcl90Wg95
ydv1tm6kI5anhn/67hyIwHkUIghyrw==
-----END CERTIFICATE-----
